; Function Attrs: mustprogress nofree norecurse nosync nounwind willreturn memory(read, inaccessiblemem: none) uwtable
define hidden noundef zeroext i1 @_ZNK4cvc58internal8Sequence7strncmpERKS1_m(ptr noundef nonnull readonly align 8 captures(none) dereferenceable(32) %0, ptr noundef nonnull readonly align 8 captures(none) dereferenceable(32) %1, i64 noundef %2) local_unnamed_addr #9 align 2 {
  %4 = getelementptr inbounds nuw i8, ptr %0, i64 8
  %5 = getelementptr inbounds nuw i8, ptr %0, i64 16
  %6 = load ptr, ptr %5, align 8, !tbaa !13
  %7 = load ptr, ptr %4, align 8, !tbaa !16
  %8 = ptrtoint ptr %6 to i64
  %9 = ptrtoint ptr %7 to i64
  %10 = sub i64 %8, %9
  %11 = ashr exact i64 %10, 3
  %12 = getelementptr inbounds nuw i8, ptr %1, i64 8
  %13 = getelementptr inbounds nuw i8, ptr %1, i64 16
  %14 = load ptr, ptr %13, align 8, !tbaa !13
  %15 = load ptr, ptr %12, align 8, !tbaa !16
  %16 = ptrtoint ptr %14 to i64
  %17 = ptrtoint ptr %15 to i64
  %18 = sub i64 %16, %17
  %19 = ashr exact i64 %18, 3
  %20 = tail call i64 @llvm.umin.i64(i64 %11, i64 %19)
  %21 = icmp ugt i64 %2, %20
  br i1 %21, label %22, label %23

22:                                               ; preds = %3
  %.not23 = icmp eq i64 %11, %19
  br i1 %.not23, label %23, label %.loopexit

23:                                               ; preds = %22, %3
  %.019 = phi i64 [ %2, %3 ], [ %20, %22 ]
  %.not2426 = icmp eq i64 %.019, 0
  br i1 %.not2426, label %.loopexit, label %.lr.ph

.lr.ph:                                           ; preds = %23, %.lr.ph
  %.027 = phi i64 [ %28, %.lr.ph ], [ 0, %23 ]
  %24 = getelementptr inbounds nuw %"class.cvc5::internal::NodeTemplate", ptr %7, i64 %.027
  %25 = getelementptr inbounds nuw %"class.cvc5::internal::NodeTemplate", ptr %15, i64 %.027
  %26 = load ptr, ptr %24, align 8, !tbaa !19
  %27 = load ptr, ptr %25, align 8, !tbaa !19
  %.not = icmp eq ptr %26, %27
  %28 = add nuw i64 %.027, 1
  %exitcond.not = icmp ne i64 %28, %.019
  %or.cond.not = select i1 %.not, i1 %exitcond.not, i1 false
  br i1 %or.cond.not, label %.lr.ph, label %.loopexit, !llvm.loop !27

.loopexit:                                        ; preds = %.lr.ph, %23, %22
  %.018 = phi i1 [ false, %22 ], [ true, %23 ], [ %.not, %.lr.ph ]
  ret i1 %.018
}